target datalayout = "e-m:e-p270:32:32-p271:32:32-p272:64:64-i64:64-i128:128-f80:128-n8:16:32:64-S128"
target triple = "x86_64-pc-linux-gnu"

%struct.slurmdb_report_user_rec_t = type { ptr, ptr, ptr, ptr, ptr, i32 }

@.str.35 = private unnamed_addr constant [5 x i8] c", %s\00", align 1

; Function Attrs: nounwind uwtable
define internal i32 @_set_user_acct(ptr noundef %0, ptr noundef %1) #0 {
  %3 = alloca i32, align 4
  %4 = alloca ptr, align 8
  %5 = alloca ptr, align 8
  %6 = alloca ptr, align 8
  %7 = alloca ptr, align 8
  %8 = alloca ptr, align 8
  %9 = alloca i32, align 4
  store ptr %0, ptr %4, align 8
  store ptr %1, ptr %5, align 8
  call void @llvm.lifetime.start.p0(i64 8, ptr %6) #6
  call void @llvm.lifetime.start.p0(i64 8, ptr %7) #6
  store ptr null, ptr %7, align 8
  call void @llvm.lifetime.start.p0(i64 8, ptr %8) #6
  %10 = load ptr, ptr %4, align 8
  store ptr %10, ptr %6, align 8
  %11 = load ptr, ptr %6, align 8
  %12 = getelementptr inbounds nuw %struct.slurmdb_report_user_rec_t, ptr %11, i32 0, i32 0
  %13 = load ptr, ptr %12, align 8
  %14 = icmp ne ptr %13, null
  br i1 %14, label %15, label %16

15:                                               ; preds = %2
  store i32 0, ptr %3, align 4
  store i32 1, ptr %9, align 4
  br label %41

16:                                               ; preds = %2
  %17 = load ptr, ptr %6, align 8
  %18 = getelementptr inbounds nuw %struct.slurmdb_report_user_rec_t, ptr %17, i32 0, i32 1
  %19 = load ptr, ptr %18, align 8
  %20 = call ptr @list_iterator_create(ptr noundef %19)
  store ptr %20, ptr %7, align 8
  br label %21

21:                                               ; preds = %38, %16
  %22 = load ptr, ptr %7, align 8
  %23 = call ptr @list_next(ptr noundef %22)
  store ptr %23, ptr %8, align 8
  %24 = icmp ne ptr %23, null
  br i1 %24, label %25, label %39

25:                                               ; preds = %21
  %26 = load ptr, ptr %6, align 8
  %27 = getelementptr inbounds nuw %struct.slurmdb_report_user_rec_t, ptr %26, i32 0, i32 0
  %28 = load ptr, ptr %27, align 8
  %29 = icmp ne ptr %28, null
  br i1 %29, label %30, label %34

30:                                               ; preds = %25
  %31 = load ptr, ptr %6, align 8
  %32 = getelementptr inbounds nuw %struct.slurmdb_report_user_rec_t, ptr %31, i32 0, i32 0
  %33 = load ptr, ptr %8, align 8
  call void (ptr, ptr, ...) @_xstrfmtcat(ptr noundef %32, ptr noundef @.str.35, ptr noundef %33)
  br label %38

34:                                               ; preds = %25
  %35 = load ptr, ptr %6, align 8
  %36 = getelementptr inbounds nuw %struct.slurmdb_report_user_rec_t, ptr %35, i32 0, i32 0
  %37 = load ptr, ptr %8, align 8
  call void @_xstrcat(ptr noundef %36, ptr noundef %37)
  br label %38

38:                                               ; preds = %34, %30
  br label %21, !llvm.loop !20

39:                                               ; preds = %21
  %40 = load ptr, ptr %7, align 8
  call void @list_iterator_destroy(ptr noundef %40)
  store i32 0, ptr %3, align 4
  store i32 1, ptr %9, align 4
  br label %41

41:                                               ; preds = %39, %15
  call void @llvm.lifetime.end.p0(i64 8, ptr %8) #6
  call void @llvm.lifetime.end.p0(i64 8, ptr %7) #6
  call void @llvm.lifetime.end.p0(i64 8, ptr %6) #6
  %42 = load i32, ptr %3, align 4
  ret i32 %42
}