; Function Attrs: nounwind uwtable
define internal noundef i32 @_set_user_acct(ptr noundef %0, ptr readnone captures(none) %1) #0 {
  %3 = load ptr, ptr %0, align 8
  %.not = icmp eq ptr %3, null
  br i1 %.not, label %4, label %15

4:                                                ; preds = %2
  %5 = getelementptr inbounds nuw i8, ptr %0, i64 8
  %6 = load ptr, ptr %5, align 8
  %7 = tail call ptr @list_iterator_create(ptr noundef %6) #9
  %8 = tail call ptr @list_next(ptr noundef %7) #9
  %.not1012 = icmp eq ptr %8, null
  br i1 %.not1012, label %._crit_edge, label %.lr.ph

.lr.ph:                                           ; preds = %4, %13
  %9 = phi ptr [ %14, %13 ], [ %8, %4 ]
  %10 = load ptr, ptr %0, align 8
  %.not11 = icmp eq ptr %10, null
  br i1 %.not11, label %12, label %11

11:                                               ; preds = %.lr.ph
  tail call void (ptr, ptr, ...) @_xstrfmtcat(ptr noundef nonnull %0, ptr noundef nonnull @.str.35, ptr noundef nonnull %9) #9
  br label %13

12:                                               ; preds = %.lr.ph
  tail call void @_xstrcat(ptr noundef nonnull %0, ptr noundef nonnull %9) #9
  br label %13

13:                                               ; preds = %12, %11
  %14 = tail call ptr @list_next(ptr noundef %7) #9
  %.not10 = icmp eq ptr %14, null
  br i1 %.not10, label %._crit_edge, label %.lr.ph, !llvm.loop !16

._crit_edge:                                      ; preds = %13, %4
  tail call void @list_iterator_destroy(ptr noundef %7) #9
  br label %15

15:                                               ; preds = %2, %._crit_edge
  ret i32 0
}